target datalayout = "e-m:e-p270:32:32-p271:32:32-p272:64:64-i64:64-i128:128-f80:128-n8:16:32:64-S128"
target triple = "x86_64-pc-linux-gnu"

%struct.evp_pkey_ctx_st = type { i32, ptr, ptr, ptr, ptr, %union.anon, %struct.anon.4, ptr, ptr, ptr, i32, i32, ptr, ptr, ptr, ptr, ptr, i8, ptr }
%union.anon = type { %struct.anon.0 }
%struct.anon.0 = type { ptr, ptr }
%struct.anon.4 = type { ptr, ptr, i64, i8 }

@.str = private unnamed_addr constant [34 x i8] c"../openssl/crypto/dsa/dsa_pmeth.c\00", align 1
@__func__.pkey_dsa_keygen = private unnamed_addr constant [16 x i8] c"pkey_dsa_keygen\00", align 1

; Function Attrs: nounwind uwtable
define internal i32 @pkey_dsa_keygen(ptr noundef %0, ptr noundef %1) #0 {
  %3 = alloca i32, align 4
  %4 = alloca ptr, align 8
  %5 = alloca ptr, align 8
  %6 = alloca ptr, align 8
  %7 = alloca i32, align 4
  store ptr %0, ptr %4, align 8, !tbaa !3
  store ptr %1, ptr %5, align 8, !tbaa !30
  call void @llvm.lifetime.start.p0(i64 8, ptr %6) #6
  store ptr null, ptr %6, align 8, !tbaa !31
  %8 = load ptr, ptr %4, align 8, !tbaa !3
  %9 = getelementptr inbounds nuw %struct.evp_pkey_ctx_st, ptr %8, i32 0, i32 14
  %10 = load ptr, ptr %9, align 8, !tbaa !37
  %11 = icmp eq ptr %10, null
  br i1 %11, label %12, label %13

12:                                               ; preds = %2
  call void @ERR_new()
  call void @ERR_set_debug(ptr noundef @.str, i32 noundef 258, ptr noundef @__func__.pkey_dsa_keygen)
  call void (i32, i32, ptr, ...) @ERR_set_error(i32 noundef 10, i32 noundef 107, ptr noundef null)
  store i32 0, ptr %3, align 4
  store i32 1, ptr %7, align 4
  br label %33

13:                                               ; preds = %2
  %14 = call ptr @DSA_new()
  store ptr %14, ptr %6, align 8, !tbaa !31
  %15 = load ptr, ptr %6, align 8, !tbaa !31
  %16 = icmp eq ptr %15, null
  br i1 %16, label %17, label %18

17:                                               ; preds = %13
  store i32 0, ptr %3, align 4
  store i32 1, ptr %7, align 4
  br label %33

18:                                               ; preds = %13
  %19 = load ptr, ptr %5, align 8, !tbaa !30
  %20 = load ptr, ptr %6, align 8, !tbaa !31
  %21 = call i32 @EVP_PKEY_assign(ptr noundef %19, i32 noundef 116, ptr noundef %20)
  %22 = load ptr, ptr %5, align 8, !tbaa !30
  %23 = load ptr, ptr %4, align 8, !tbaa !3
  %24 = getelementptr inbounds nuw %struct.evp_pkey_ctx_st, ptr %23, i32 0, i32 14
  %25 = load ptr, ptr %24, align 8, !tbaa !37
  %26 = call i32 @EVP_PKEY_copy_parameters(ptr noundef %22, ptr noundef %25)
  %27 = icmp ne i32 %26, 0
  br i1 %27, label %29, label %28

28:                                               ; preds = %18
  store i32 0, ptr %3, align 4
  store i32 1, ptr %7, align 4
  br label %33

29:                                               ; preds = %18
  %30 = load ptr, ptr %5, align 8, !tbaa !30
  %31 = call ptr @EVP_PKEY_get0_DSA(ptr noundef %30)
  %32 = call i32 @DSA_generate_key(ptr noundef %31)
  store i32 %32, ptr %3, align 4
  store i32 1, ptr %7, align 4
  br label %33

33:                                               ; preds = %29, %28, %17, %12
  call void @llvm.lifetime.end.p0(i64 8, ptr %6) #6
  %34 = load i32, ptr %3, align 4
  ret i32 %34
}