; Function Attrs: nounwind uwtable
define internal i32 @pkey_dsa_keygen(ptr noundef readonly captures(none) %0, ptr noundef %1) #1 {
  %3 = getelementptr inbounds nuw i8, ptr %0, i64 136
  %4 = load ptr, ptr %3, align 8, !tbaa !28
  %5 = icmp eq ptr %4, null
  br i1 %5, label %6, label %7

6:                                                ; preds = %2
  tail call void @ERR_new() #7
  tail call void @ERR_set_debug(ptr noundef nonnull @.str, i32 noundef 258, ptr noundef nonnull @__func__.pkey_dsa_keygen) #7
  tail call void (i32, i32, ptr, ...) @ERR_set_error(i32 noundef 10, i32 noundef 107, ptr noundef null) #7
  br label %17

7:                                                ; preds = %2
  %8 = tail call ptr @DSA_new() #7
  %9 = icmp eq ptr %8, null
  br i1 %9, label %17, label %10

10:                                               ; preds = %7
  %11 = tail call i32 @EVP_PKEY_assign(ptr noundef %1, i32 noundef 116, ptr noundef nonnull %8) #7
  %12 = load ptr, ptr %3, align 8, !tbaa !28
  %13 = tail call i32 @EVP_PKEY_copy_parameters(ptr noundef %1, ptr noundef %12) #7
  %.not = icmp eq i32 %13, 0
  br i1 %.not, label %17, label %14

14:                                               ; preds = %10
  %15 = tail call ptr @EVP_PKEY_get0_DSA(ptr noundef %1) #7
  %16 = tail call i32 @DSA_generate_key(ptr noundef %15) #7
  br label %17

17:                                               ; preds = %10, %7, %14, %6
  %.0 = phi i32 [ 0, %6 ], [ %16, %14 ], [ 0, %7 ], [ 0, %10 ]
  ret i32 %.0
}